target datalayout = "e-m:e-p270:32:32-p271:32:32-p272:64:64-i64:64-i128:128-f80:128-n8:16:32:64-S128"
target triple = "x86_64-pc-linux-gnu"

; Function Attrs: nounwind uwtable
define ptr @Rpo_CreateEdge(i32 noundef %0, i32 noundef %1, i32 noundef %2, ptr noundef %3) #0 {
  %5 = alloca i32, align 4
  %6 = alloca i32, align 4
  %7 = alloca i32, align 4
  %8 = alloca ptr, align 8
  %9 = alloca ptr, align 8
  store i32 %0, ptr %5, align 4, !tbaa !8
  store i32 %1, ptr %6, align 4, !tbaa !8
  store i32 %2, ptr %7, align 4, !tbaa !8
  store ptr %3, ptr %8, align 8, !tbaa !10
  call void @llvm.lifetime.start.p0(i64 8, ptr %9) #10
  %10 = call noalias ptr @malloc(i64 noundef 8) #11
  store ptr %10, ptr %9, align 8, !tbaa !20
  %11 = load i32, ptr %5, align 4, !tbaa !8
  %12 = zext i32 %11 to i64
  %13 = load ptr, ptr %9, align 8, !tbaa !20
  %14 = load i64, ptr %13, align 8
  %15 = and i64 %12, 3
  %16 = shl i64 %15, 1
  %17 = and i64 %14, -7
  %18 = or i64 %17, %16
  store i64 %18, ptr %13, align 8
  %19 = load i32, ptr %6, align 4, !tbaa !8
  %20 = sext i32 %19 to i64
  %21 = load ptr, ptr %9, align 8, !tbaa !20
  %22 = load i64, ptr %21, align 8
  %23 = and i64 %20, 1073741823
  %24 = shl i64 %23, 4
  %25 = and i64 %22, -17179869169
  %26 = or i64 %25, %24
  store i64 %26, ptr %21, align 8
  %27 = load i32, ptr %7, align 4, !tbaa !8
  %28 = sext i32 %27 to i64
  %29 = load ptr, ptr %9, align 8, !tbaa !20
  %30 = load i64, ptr %29, align 8
  %31 = and i64 %28, 1073741823
  %32 = shl i64 %31, 34
  %33 = and i64 %30, 17179869183
  %34 = or i64 %33, %32
  store i64 %34, ptr %29, align 8
  %35 = load ptr, ptr %9, align 8, !tbaa !20
  %36 = load i64, ptr %35, align 8
  %37 = and i64 %36, -2
  %38 = or i64 %37, 0
  store i64 %38, ptr %35, align 8
  %39 = load ptr, ptr %8, align 8, !tbaa !10
  %40 = load i32, ptr %6, align 4, !tbaa !8
  %41 = sext i32 %40 to i64
  %42 = getelementptr inbounds i32, ptr %39, i64 %41
  %43 = load i32, ptr %42, align 4, !tbaa !8
  %44 = add nsw i32 %43, 1
  store i32 %44, ptr %42, align 4, !tbaa !8
  %45 = load ptr, ptr %8, align 8, !tbaa !10
  %46 = load i32, ptr %7, align 4, !tbaa !8
  %47 = sext i32 %46 to i64
  %48 = getelementptr inbounds i32, ptr %45, i64 %47
  %49 = load i32, ptr %48, align 4, !tbaa !8
  %50 = add nsw i32 %49, 1
  store i32 %50, ptr %48, align 4, !tbaa !8
  %51 = load ptr, ptr %9, align 8, !tbaa !20
  call void @llvm.lifetime.end.p0(i64 8, ptr %9) #10
  ret ptr %51
}