; Function Attrs: mustprogress nofree nounwind willreturn memory(write, argmem: readwrite, inaccessiblemem: readwrite) uwtable
define noalias noundef ptr @Rpo_CreateEdge(i32 noundef %0, i32 noundef %1, i32 noundef %2, ptr noundef captures(none) %3) local_unnamed_addr #4 {
  %5 = tail call noalias dereferenceable_or_null(8) ptr @malloc(i64 noundef 8) #16
  %6 = shl i32 %0, 1
  %7 = and i32 %6, 6
  %8 = zext nneg i32 %7 to i64
  %9 = sext i32 %1 to i64
  %10 = shl nsw i64 %9, 4
  %11 = sext i32 %2 to i64
  %12 = shl i64 %11, 34
  %.masked = and i64 %10, 17179869168
  %13 = or disjoint i64 %.masked, %8
  %14 = or disjoint i64 %13, %12
  store i64 %14, ptr %5, align 8
  %15 = getelementptr inbounds i32, ptr %3, i64 %9
  %16 = load i32, ptr %15, align 4, !tbaa !10
  %17 = add nsw i32 %16, 1
  store i32 %17, ptr %15, align 4, !tbaa !10
  %18 = getelementptr inbounds i32, ptr %3, i64 %11
  %19 = load i32, ptr %18, align 4, !tbaa !10
  %20 = add nsw i32 %19, 1
  store i32 %20, ptr %18, align 4, !tbaa !10
  ret ptr %5
}